; Function Attrs: mustprogress nofree norecurse nosync nounwind willreturn memory(argmem: read) uwtable
define noundef signext range(i8 0, 2) i8 @_ZNK6icu_7710StringPair7isBogusEv(ptr noundef nonnull readonly align 8 captures(none) dereferenceable(136) %0) local_unnamed_addr #9 align 2 {
  %2 = getelementptr inbounds nuw i8, ptr %0, i64 16
  %3 = load i16, ptr %2, align 8, !tbaa !6
  %4 = and i16 %3, 1
  %.not = icmp eq i16 %4, 0
  %5 = getelementptr inbounds nuw i8, ptr %0, i64 80
  %6 = load i16, ptr %5, align 8
  %7 = trunc i16 %6 to i8
  %8 = and i8 %7, 1
  %9 = select i1 %.not, i8 %8, i8 1
  ret i8 %9
}